target datalayout = "e-m:e-p270:32:32-p271:32:32-p272:64:64-i64:64-i128:128-f80:128-n8:16:32:64-S128"
target triple = "x86_64-pc-linux-gnu"

; Function Attrs: nounwind uwtable
define dso_local void @refspec_appendn(ptr noundef %0, ptr noundef %1, i32 noundef %2) #0 {
  %4 = alloca ptr, align 8
  %5 = alloca ptr, align 8
  %6 = alloca i32, align 4
  %7 = alloca i32, align 4
  store ptr %0, ptr %4, align 8, !tbaa !43
  store ptr %1, ptr %5, align 8, !tbaa !51
  store i32 %2, ptr %6, align 4, !tbaa !11
  call void @llvm.lifetime.start.p0(i64 4, ptr %7) #10
  store i32 0, ptr %7, align 4, !tbaa !11
  br label %8

8:                                                ; preds = %19, %3
  %9 = load i32, ptr %7, align 4, !tbaa !11
  %10 = load i32, ptr %6, align 4, !tbaa !11
  %11 = icmp slt i32 %9, %10
  br i1 %11, label %12, label %22

12:                                               ; preds = %8
  %13 = load ptr, ptr %4, align 8, !tbaa !43
  %14 = load ptr, ptr %5, align 8, !tbaa !51
  %15 = load i32, ptr %7, align 4, !tbaa !11
  %16 = sext i32 %15 to i64
  %17 = getelementptr inbounds ptr, ptr %14, i64 %16
  %18 = load ptr, ptr %17, align 8, !tbaa !9
  call void @refspec_append(ptr noundef %13, ptr noundef %18)
  br label %19

19:                                               ; preds = %12
  %20 = load i32, ptr %7, align 4, !tbaa !11
  %21 = add nsw i32 %20, 1
  store i32 %21, ptr %7, align 4, !tbaa !11
  br label %8, !llvm.loop !53

22:                                               ; preds = %8
  call void @llvm.lifetime.end.p0(i64 4, ptr %7) #10
  ret void
}